target datalayout = "e-m:e-p270:32:32-p271:32:32-p272:64:64-i64:64-i128:128-f80:128-n8:16:32:64-S128"
target triple = "x86_64-pc-linux-gnu"

%struct.expert_field = type { i32, i32 }
%struct._value_string_ext = type { ptr, i32, i32, ptr, ptr }
%struct._packet_info = type { ptr, ptr, i32, i32, %struct.nstime_t, %struct.nstime_t, %struct.nstime_t, i32, ptr, ptr, ptr, ptr, %struct._address, %struct._address, %struct._address, %struct._address, %struct._address, %struct._address, i32, ptr, i32, %struct.anon, i32, i32, i32, i32, ptr, i32, ptr, ptr, i16, i16, i32, i32, i16, i32, i32, ptr, ptr, ptr, i8, i8, i16, i16, i16, i32, i16, i16, ptr, ptr, ptr, ptr, ptr, i32 }
%struct.nstime_t = type { i64, i32 }
%struct._address = type { i32, i32, ptr, ptr }
%struct.anon = type { i8, [3 x i8] }
%struct.openwire_conv_data = type { i32, i32 }

@hf_openwire_length = internal global i32 0, align 4
@hf_openwire_command = internal global i32 0, align 4
@hf_openwire_cached_enabled = internal global i32 0, align 4
@ett_openwire = internal global i32 0, align 4
@ei_openwire_command_not_supported = internal global %struct.expert_field zeroinitializer, align 4
@ei_openwire_tight_encoding_not_supported = internal global %struct.expert_field zeroinitializer, align 4
@.str.500 = private unnamed_addr constant [9 x i8] c"OpenWire\00", align 1
@proto_openwire = internal global i32 0, align 4
@.str.585 = private unnamed_addr constant [4 x i8] c" | \00", align 1
@openwire_opcode_vals_ext = internal global %struct._value_string_ext { ptr @_try_val_to_str_ext_init, i32 0, i32 66, ptr @openwire_opcode_vals, ptr @.str.589 }, align 8
@.str.586 = private unnamed_addr constant [17 x i8] c"Unknown (0x%02x)\00", align 1
@.str.587 = private unnamed_addr constant [6 x i8] c" (%s)\00", align 1
@.str.588 = private unnamed_addr constant [49 x i8] c"OpenWire command fields unknown to Wireshark: %d\00", align 1

; Function Attrs: nounwind uwtable
define internal i32 @retrieve_caching(ptr noundef %0) #0 {
  %2 = alloca i32, align 4
  %3 = alloca ptr, align 8
  %4 = alloca ptr, align 8
  %5 = alloca ptr, align 8
  store ptr %0, ptr %3, align 8
  %6 = load ptr, ptr %3, align 8
  %7 = call nonnull ptr @find_or_create_conversation(ptr noundef %6)
  store ptr %7, ptr %4, align 8
  %8 = load ptr, ptr %4, align 8
  %9 = load i32, ptr @proto_openwire, align 4
  %10 = call ptr @conversation_get_proto_data(ptr noundef %8, i32 noundef %9)
  store ptr %10, ptr %5, align 8
  %11 = load ptr, ptr %5, align 8
  %12 = icmp ne ptr %11, null
  br i1 %12, label %13, label %17

13:                                               ; preds = %1
  %14 = load ptr, ptr %5, align 8
  %15 = getelementptr inbounds %struct.openwire_conv_data, ptr %14, i32 0, i32 0
  %16 = load i32, ptr %15, align 4
  store i32 %16, ptr %2, align 4
  br label %18

17:                                               ; preds = %1
  store i32 0, ptr %2, align 4
  br label %18

18:                                               ; preds = %17, %13
  %19 = load i32, ptr %2, align 4
  ret i32 %19
}

; Function Attrs: nounwind uwtable
define internal i32 @retrieve_tight(ptr noundef %0) #0 {
  %2 = alloca i32, align 4
  %3 = alloca ptr, align 8
  %4 = alloca ptr, align 8
  %5 = alloca ptr, align 8
  store ptr %0, ptr %3, align 8
  %6 = load ptr, ptr %3, align 8
  %7 = call nonnull ptr @find_or_create_conversation(ptr noundef %6)
  store ptr %7, ptr %4, align 8
  %8 = load ptr, ptr %4, align 8
  %9 = load i32, ptr @proto_openwire, align 4
  %10 = call ptr @conversation_get_proto_data(ptr noundef %8, i32 noundef %9)
  store ptr %10, ptr %5, align 8
  %11 = load ptr, ptr %5, align 8
  %12 = icmp ne ptr %11, null
  br i1 %12, label %13, label %19

13:                                               ; preds = %1
  %14 = load ptr, ptr %5, align 8
  %15 = getelementptr inbounds %struct.openwire_conv_data, ptr %14, i32 0, i32 1
  %16 = load i32, ptr %15, align 4
  %17 = icmp ne i32 %16, 0
  br i1 %17, label %18, label %19

18:                                               ; preds = %13
  store i32 1, ptr %2, align 4
  br label %20

19:                                               ; preds = %13, %1
  store i32 0, ptr %2, align 4
  br label %20

20:                                               ; preds = %19, %18
  %21 = load i32, ptr %2, align 4
  ret i32 %21
}

; Function Attrs: nounwind uwtable
define internal void @detect_protocol_options(ptr noundef %0, ptr noundef %1, i32 noundef %2, i32 noundef %3) #0 {
  %5 = alloca ptr, align 8
  %6 = alloca ptr, align 8
  %7 = alloca i32, align 4
  %8 = alloca i32, align 4
  %9 = alloca ptr, align 8
  %10 = alloca ptr, align 8
  %11 = alloca i8, align 1
  %12 = alloca i8, align 1
  %13 = alloca i32, align 4
  %14 = alloca ptr, align 8
  %15 = alloca ptr, align 8
  store ptr %0, ptr %5, align 8
  store ptr %1, ptr %6, align 8
  store i32 %2, ptr %7, align 4
  store i32 %3, ptr %8, align 4
  %16 = load ptr, ptr %5, align 8
  %17 = load i32, ptr %7, align 4
  %18 = call i32 @tvb_captured_length_remaining(ptr noundef %16, i32 noundef %17)
  %19 = icmp sge i32 %18, 12
  br i1 %19, label %20, label %103

20:                                               ; preds = %4
  %21 = load i32, ptr %8, align 4
  %22 = icmp eq i32 %21, 4
  br i1 %22, label %53, label %23

23:                                               ; preds = %20
  %24 = load i32, ptr %8, align 4
  %25 = icmp eq i32 %24, 8
  br i1 %25, label %53, label %26

26:                                               ; preds = %23
  %27 = load i32, ptr %8, align 4
  %28 = icmp eq i32 %27, 3
  br i1 %28, label %53, label %29

29:                                               ; preds = %26
  %30 = load i32, ptr %8, align 4
  %31 = icmp eq i32 %30, 5
  br i1 %31, label %53, label %32

32:                                               ; preds = %29
  %33 = load i32, ptr %8, align 4
  %34 = icmp eq i32 %33, 6
  br i1 %34, label %53, label %35

35:                                               ; preds = %32
  %36 = load i32, ptr %8, align 4
  %37 = icmp eq i32 %36, 2
  br i1 %37, label %53, label %38

38:                                               ; preds = %35
  %39 = load i32, ptr %8, align 4
  %40 = icmp eq i32 %39, 7
  br i1 %40, label %53, label %41

41:                                               ; preds = %38
  %42 = load i32, ptr %8, align 4
  %43 = icmp eq i32 %42, 9
  br i1 %43, label %53, label %44

44:                                               ; preds = %41
  %45 = load i32, ptr %8, align 4
  %46 = icmp eq i32 %45, 21
  br i1 %46, label %53, label %47

47:                                               ; preds = %44
  %48 = load i32, ptr %8, align 4
  %49 = icmp eq i32 %48, 22
  br i1 %49, label %53, label %50

50:                                               ; preds = %47
  %51 = load i32, ptr %8, align 4
  %52 = icmp eq i32 %51, 20
  br i1 %52, label %53, label %102

53:                                               ; preds = %50, %47, %44, %41, %38, %35, %32, %29, %26, %23, %20
  store ptr null, ptr %9, align 8
  store ptr null, ptr %10, align 8
  %54 = load ptr, ptr %6, align 8
  %55 = call nonnull ptr @find_or_create_conversation(ptr noundef %54)
  store ptr %55, ptr %9, align 8
  %56 = load ptr, ptr %9, align 8
  %57 = load i32, ptr @proto_openwire, align 4
  %58 = call ptr @conversation_get_proto_data(ptr noundef %56, i32 noundef %57)
  store ptr %58, ptr %10, align 8
  %59 = load ptr, ptr %10, align 8
  %60 = icmp ne ptr %59, null
  br i1 %60, label %101, label %61

61:                                               ; preds = %53
  store i32 0, ptr %13, align 4
  %62 = load ptr, ptr %5, align 8
  %63 = load i32, ptr %7, align 4
  %64 = add i32 %63, 10
  %65 = call zeroext i8 @tvb_get_guint8(ptr noundef %62, i32 noundef %64)
  store i8 %65, ptr %11, align 1
  %66 = load ptr, ptr %5, align 8
  %67 = load i32, ptr %7, align 4
  %68 = add i32 %67, 11
  %69 = call zeroext i8 @tvb_get_guint8(ptr noundef %66, i32 noundef %68)
  store i8 %69, ptr %12, align 1
  %70 = load ptr, ptr %5, align 8
  %71 = load i32, ptr %7, align 4
  %72 = add i32 %71, 5
  %73 = call i32 @tvb_get_ntohl(ptr noundef %70, i32 noundef %72)
  store i32 %73, ptr %13, align 4
  %74 = call ptr @wmem_file_scope()
  %75 = call noalias ptr @wmem_alloc(ptr noundef %74, i64 noundef 8)
  store ptr %75, ptr %10, align 8
  %76 = load ptr, ptr %10, align 8
  %77 = getelementptr inbounds %struct.openwire_conv_data, ptr %76, i32 0, i32 0
  store i32 0, ptr %77, align 4
  %78 = load ptr, ptr %10, align 8
  %79 = getelementptr inbounds %struct.openwire_conv_data, ptr %78, i32 0, i32 1
  store i32 0, ptr %79, align 4
  %80 = load i32, ptr %13, align 4
  %81 = icmp sgt i32 %80, 16777216
  br i1 %81, label %82, label %85

82:                                               ; preds = %61
  %83 = load ptr, ptr %10, align 8
  %84 = getelementptr inbounds %struct.openwire_conv_data, ptr %83, i32 0, i32 1
  store i32 1, ptr %84, align 4
  br label %97

85:                                               ; preds = %61
  %86 = load i8, ptr %11, align 1
  %87 = zext i8 %86 to i32
  %88 = icmp eq i32 %87, 1
  br i1 %88, label %89, label %96

89:                                               ; preds = %85
  %90 = load i8, ptr %12, align 1
  %91 = zext i8 %90 to i32
  %92 = icmp eq i32 %91, 0
  br i1 %92, label %93, label %96

93:                                               ; preds = %89
  %94 = load ptr, ptr %10, align 8
  %95 = getelementptr inbounds %struct.openwire_conv_data, ptr %94, i32 0, i32 0
  store i32 1, ptr %95, align 4
  br label %96

96:                                               ; preds = %93, %89, %85
  br label %97

97:                                               ; preds = %96, %82
  %98 = load ptr, ptr %9, align 8
  %99 = load i32, ptr @proto_openwire, align 4
  %100 = load ptr, ptr %10, align 8
  call void @conversation_add_proto_data(ptr noundef %98, i32 noundef %99, ptr noundef %100)
  br label %101

101:                                              ; preds = %97, %53
  br label %102

102:                                              ; preds = %101, %50
  br label %132

103:                                              ; preds = %4
  %104 = load ptr, ptr %5, align 8
  %105 = call zeroext i8 @tvb_get_guint8(ptr noundef %104, i32 noundef 4)
  %106 = zext i8 %105 to i32
  %107 = icmp eq i32 %106, 10
  br i1 %107, label %108, label %131

108:                                              ; preds = %103
  %109 = load ptr, ptr %5, align 8
  %110 = call i32 @tvb_captured_length(ptr noundef %109)
  %111 = icmp eq i32 %110, 11
  br i1 %111, label %112, label %131

112:                                              ; preds = %108
  store ptr null, ptr %14, align 8
  store ptr null, ptr %15, align 8
  %113 = load ptr, ptr %6, align 8
  %114 = call nonnull ptr @find_or_create_conversation(ptr noundef %113)
  store ptr %114, ptr %14, align 8
  %115 = load ptr, ptr %14, align 8
  %116 = load i32, ptr @proto_openwire, align 4
  %117 = call ptr @conversation_get_proto_data(ptr noundef %115, i32 noundef %116)
  store ptr %117, ptr %15, align 8
  %118 = load ptr, ptr %15, align 8
  %119 = icmp ne ptr %118, null
  br i1 %119, label %130, label %120

120:                                              ; preds = %112
  %121 = call ptr @wmem_file_scope()
  %122 = call noalias ptr @wmem_alloc(ptr noundef %121, i64 noundef 8)
  store ptr %122, ptr %15, align 8
  %123 = load ptr, ptr %15, align 8
  %124 = getelementptr inbounds %struct.openwire_conv_data, ptr %123, i32 0, i32 1
  store i32 1, ptr %124, align 4
  %125 = load ptr, ptr %15, align 8
  %126 = getelementptr inbounds %struct.openwire_conv_data, ptr %125, i32 0, i32 0
  store i32 0, ptr %126, align 4
  %127 = load ptr, ptr %14, align 8
  %128 = load i32, ptr @proto_openwire, align 4
  %129 = load ptr, ptr %15, align 8
  call void @conversation_add_proto_data(ptr noundef %127, i32 noundef %128, ptr noundef %129)
  br label %130

130:                                              ; preds = %120, %112
  br label %131

131:                                              ; preds = %130, %108, %103
  br label %132

132:                                              ; preds = %131, %102
  ret void
}

; Function Attrs: nounwind uwtable
define internal i32 @dissect_openwire(ptr noundef %0, ptr noundef %1, ptr noundef %2, ptr noundef %3) #0 {
  %5 = alloca i32, align 4
  %6 = alloca ptr, align 8
  %7 = alloca ptr, align 8
  %8 = alloca ptr, align 8
  %9 = alloca ptr, align 8
  %10 = alloca i32, align 4
  %11 = alloca i8, align 1
  %12 = alloca ptr, align 8
  %13 = alloca ptr, align 8
  %14 = alloca i32, align 4
  store ptr %0, ptr %6, align 8
  store ptr %1, ptr %7, align 8
  store ptr %2, ptr %8, align 8
  store ptr %3, ptr %9, align 8
  store i32 0, ptr %10, align 4
  %15 = load ptr, ptr %7, align 8
  %16 = getelementptr inbounds %struct._packet_info, ptr %15, i32 0, i32 1
  %17 = load ptr, ptr %16, align 8
  call void @col_set_str(ptr noundef %17, i32 noundef 34, ptr noundef @.str.500)
  %18 = load ptr, ptr %7, align 8
  %19 = getelementptr inbounds %struct._packet_info, ptr %18, i32 0, i32 1
  %20 = load ptr, ptr %19, align 8
  call void @col_clear(ptr noundef %20, i32 noundef 25)
  %21 = load ptr, ptr %6, align 8
  %22 = load i32, ptr %10, align 4
  %23 = call i32 @tvb_reported_length_remaining(ptr noundef %21, i32 noundef %22)
  %24 = icmp sge i32 %23, 5
  br i1 %24, label %25, label %117

25:                                               ; preds = %4
  %26 = load ptr, ptr %6, align 8
  %27 = load i32, ptr %10, align 4
  %28 = add i32 %27, 4
  %29 = call zeroext i8 @tvb_get_guint8(ptr noundef %26, i32 noundef %28)
  store i8 %29, ptr %11, align 1
  %30 = load ptr, ptr %7, align 8
  %31 = getelementptr inbounds %struct._packet_info, ptr %30, i32 0, i32 1
  %32 = load ptr, ptr %31, align 8
  %33 = load i8, ptr %11, align 1
  %34 = zext i8 %33 to i32
  %35 = call ptr @val_to_str_ext(i32 noundef %34, ptr noundef @openwire_opcode_vals_ext, ptr noundef @.str.586)
  call void @col_append_sep_str(ptr noundef %32, i32 noundef 25, ptr noundef @.str.585, ptr noundef %35)
  %36 = load ptr, ptr %7, align 8
  %37 = getelementptr inbounds %struct._packet_info, ptr %36, i32 0, i32 1
  %38 = load ptr, ptr %37, align 8
  call void @col_set_fence(ptr noundef %38, i32 noundef 25)
  %39 = load ptr, ptr %6, align 8
  %40 = load ptr, ptr %7, align 8
  %41 = load i32, ptr %10, align 4
  %42 = load i8, ptr %11, align 1
  %43 = zext i8 %42 to i32
  call void @detect_protocol_options(ptr noundef %39, ptr noundef %40, i32 noundef %41, i32 noundef %43)
  %44 = load ptr, ptr %8, align 8
  %45 = load i32, ptr @proto_openwire, align 4
  %46 = load ptr, ptr %6, align 8
  %47 = load i32, ptr %10, align 4
  %48 = call ptr @proto_tree_add_item(ptr noundef %44, i32 noundef %45, ptr noundef %46, i32 noundef %47, i32 noundef -1, i32 noundef 0)
  store ptr %48, ptr %13, align 8
  %49 = load ptr, ptr %13, align 8
  %50 = load i8, ptr %11, align 1
  %51 = zext i8 %50 to i32
  %52 = call ptr @val_to_str_ext(i32 noundef %51, ptr noundef @openwire_opcode_vals_ext, ptr noundef @.str.586)
  call void (ptr, ptr, ...) @proto_item_append_text(ptr noundef %49, ptr noundef @.str.587, ptr noundef %52)
  %53 = load ptr, ptr %13, align 8
  %54 = load i32, ptr @ett_openwire, align 4
  %55 = call ptr @proto_item_add_subtree(ptr noundef %53, i32 noundef %54)
  store ptr %55, ptr %12, align 8
  %56 = load ptr, ptr %12, align 8
  %57 = load i32, ptr @hf_openwire_length, align 4
  %58 = load ptr, ptr %6, align 8
  %59 = load i32, ptr %10, align 4
  %60 = add i32 %59, 0
  %61 = call ptr @proto_tree_add_item(ptr noundef %56, i32 noundef %57, ptr noundef %58, i32 noundef %60, i32 noundef 4, i32 noundef 0)
  %62 = load i8, ptr %11, align 1
  %63 = zext i8 %62 to i32
  %64 = icmp ne i32 %63, 1
  br i1 %64, label %65, label %81

65:                                               ; preds = %25
  %66 = load ptr, ptr %7, align 8
  %67 = call i32 @retrieve_tight(ptr noundef %66)
  %68 = icmp eq i32 %67, 1
  br i1 %68, label %69, label %81

69:                                               ; preds = %65
  %70 = load ptr, ptr %12, align 8
  %71 = load i32, ptr @hf_openwire_command, align 4
  %72 = load ptr, ptr %6, align 8
  %73 = load i32, ptr %10, align 4
  %74 = add i32 %73, 4
  %75 = call ptr @proto_tree_add_item(ptr noundef %70, i32 noundef %71, ptr noundef %72, i32 noundef %74, i32 noundef 1, i32 noundef 0)
  %76 = load ptr, ptr %7, align 8
  %77 = load ptr, ptr %12, align 8
  %78 = call ptr @expert_add_info(ptr noundef %76, ptr noundef %77, ptr noundef @ei_openwire_tight_encoding_not_supported)
  %79 = load ptr, ptr %6, align 8
  %80 = call i32 @tvb_captured_length(ptr noundef %79)
  store i32 %80, ptr %5, align 4
  br label %120

81:                                               ; preds = %65, %25
  %82 = load ptr, ptr %7, align 8
  %83 = call i32 @retrieve_caching(ptr noundef %82)
  store i32 %83, ptr %14, align 4
  %84 = load i32, ptr %14, align 4
  %85 = icmp ne i32 %84, 0
  br i1 %85, label %86, label %94

86:                                               ; preds = %81
  %87 = load ptr, ptr %12, align 8
  %88 = load i32, ptr @hf_openwire_cached_enabled, align 4
  %89 = load ptr, ptr %6, align 8
  %90 = load i32, ptr %10, align 4
  %91 = load i32, ptr %14, align 4
  %92 = sext i32 %91 to i64
  %93 = call ptr @proto_tree_add_boolean(ptr noundef %87, i32 noundef %88, ptr noundef %89, i32 noundef %90, i32 noundef 0, i64 noundef %92)
  br label %94

94:                                               ; preds = %86, %81
  %95 = load i32, ptr %10, align 4
  %96 = add i32 %95, 4
  store i32 %96, ptr %10, align 4
  %97 = load ptr, ptr %6, align 8
  %98 = load ptr, ptr %7, align 8
  %99 = load ptr, ptr %12, align 8
  %100 = load i32, ptr %10, align 4
  %101 = load i8, ptr %11, align 1
  %102 = zext i8 %101 to i32
  %103 = call i32 @dissect_openwire_command(ptr noundef %97, ptr noundef %98, ptr noundef %99, i32 noundef %100, i32 noundef %102)
  %104 = load i32, ptr %10, align 4
  %105 = add i32 %104, %103
  store i32 %105, ptr %10, align 4
  %106 = load ptr, ptr %6, align 8
  %107 = load i32, ptr %10, align 4
  %108 = call i32 @tvb_reported_length_remaining(ptr noundef %106, i32 noundef %107)
  %109 = icmp sgt i32 %108, 0
  br i1 %109, label %110, label %116

110:                                              ; preds = %94
  %111 = load ptr, ptr %7, align 8
  %112 = load ptr, ptr %8, align 8
  %113 = load i8, ptr %11, align 1
  %114 = zext i8 %113 to i32
  %115 = call ptr (ptr, ptr, ptr, ptr, ...) @expert_add_info_format(ptr noundef %111, ptr noundef %112, ptr noundef @ei_openwire_command_not_supported, ptr noundef @.str.588, i32 noundef %114)
  br label %116

116:                                              ; preds = %110, %94
  br label %117

117:                                              ; preds = %116, %4
  %118 = load ptr, ptr %6, align 8
  %119 = call i32 @tvb_captured_length(ptr noundef %118)
  store i32 %119, ptr %5, align 4
  br label %120

120:                                              ; preds = %117, %69
  %121 = load i32, ptr %5, align 4
  ret i32 %121
}